; Function Attrs: nounwind uwtable
define i32 @uv_fs_sendfile(ptr noundef %loop, ptr noundef %req, i32 noundef %out_fd, i32 noundef %in_fd, i64 noundef %off, i64 noundef %len, ptr noundef %cb) local_unnamed_addr #0 {
entry:
  %cmp = icmp eq ptr %req, null
  br i1 %cmp, label %do.end14, label %do.body1

do.body1:                                         ; preds = %entry
  %type = getelementptr inbounds nuw i8, ptr %req, i64 8
  store i32 6, ptr %type, align 8
  %fs_type = getelementptr inbounds nuw i8, ptr %req, i64 64
  store i32 5, ptr %fs_type, align 8
  %result = getelementptr inbounds nuw i8, ptr %req, i64 88
  %loop2 = getelementptr inbounds nuw i8, ptr %req, i64 72
  tail call void @llvm.memset.p0.i64(ptr noundef nonnull align 8 dereferenceable(16) %result, i8 0, i64 16, i1 false)
  store ptr %loop, ptr %loop2, align 8
  %path = getelementptr inbounds nuw i8, ptr %req, i64 104
  store ptr null, ptr %path, align 8
  %new_path = getelementptr inbounds nuw i8, ptr %req, i64 272
  store ptr null, ptr %new_path, align 8
  %bufs = getelementptr inbounds nuw i8, ptr %req, i64 296
  store ptr null, ptr %bufs, align 8
  %cb3 = getelementptr inbounds nuw i8, ptr %req, i64 80
  store ptr %cb, ptr %cb3, align 8
  %flags = getelementptr inbounds nuw i8, ptr %req, i64 284
  store i32 %in_fd, ptr %flags, align 4
  %file = getelementptr inbounds nuw i8, ptr %req, i64 280
  store i32 %out_fd, ptr %file, align 8
  %off5 = getelementptr inbounds nuw i8, ptr %req, i64 304
  store i64 %off, ptr %off5, align 8
  %len6 = getelementptr inbounds nuw i8, ptr %req, i64 384
  store i64 %len, ptr %len6, align 8
  %cmp8.not = icmp eq ptr %cb, null
  br i1 %cmp8.not, label %if.else, label %do.body10

do.body10:                                        ; preds = %do.body1
  %active_reqs = getelementptr inbounds nuw i8, ptr %loop, i64 32
  %0 = load i32, ptr %active_reqs, align 8
  %inc = add i32 %0, 1
  store i32 %inc, ptr %active_reqs, align 8
  %work_req = getelementptr inbounds nuw i8, ptr %req, i64 336
  tail call void @uv__work_submit(ptr noundef %loop, ptr noundef nonnull %work_req, i32 noundef 1, ptr noundef nonnull @uv__fs_work, ptr noundef nonnull @uv__fs_done) #15
  br label %do.end14

if.else:                                          ; preds = %do.body1
  %work_req12 = getelementptr inbounds nuw i8, ptr %req, i64 336
  tail call void @uv__fs_work(ptr noundef nonnull %work_req12)
  %1 = load i64, ptr %result, align 8
  %conv = trunc i64 %1 to i32
  br label %do.end14

do.end14:                                         ; preds = %entry, %if.else, %do.body10
  %retval.0 = phi i32 [ 0, %do.body10 ], [ %conv, %if.else ], [ -22, %entry ]
  ret i32 %retval.0
}